; Function Attrs: nounwind uwtable
define range(i32 -1, 1) i32 @evdns_set_option(ptr noundef readonly captures(none) %0, ptr noundef %1, i32 noundef %2) local_unnamed_addr #2 {
  %4 = load ptr, ptr @current_base, align 8
  %.not = icmp eq ptr %4, null
  br i1 %.not, label %5, label %7

5:                                                ; preds = %3
  %6 = tail call ptr @evdns_base_new(ptr noundef null, i32 noundef 0)
  store ptr %6, ptr @current_base, align 8
  br label %7

7:                                                ; preds = %5, %3
  %8 = phi ptr [ %6, %5 ], [ %4, %3 ]
  %9 = getelementptr inbounds nuw i8, ptr %8, i64 344
  %10 = load ptr, ptr %9, align 8
  %.not.i = icmp eq ptr %10, null
  br i1 %.not.i, label %14, label %11

11:                                               ; preds = %7
  %12 = load ptr, ptr getelementptr inbounds nuw (i8, ptr @evthread_lock_fns_, i64 24), align 8
  %13 = tail call i32 %12(i32 noundef 0, ptr noundef nonnull %10) #21
  br label %14

14:                                               ; preds = %11, %7
  %15 = tail call fastcc i32 @evdns_base_set_option_impl(ptr noundef nonnull %8, ptr noundef readonly %0, ptr noundef %1, i32 noundef 15)
  %16 = load ptr, ptr %9, align 8
  %.not8.i = icmp eq ptr %16, null
  br i1 %.not8.i, label %evdns_base_set_option.exit, label %17

17:                                               ; preds = %14
  %18 = load ptr, ptr getelementptr inbounds nuw (i8, ptr @evthread_lock_fns_, i64 32), align 8
  %19 = tail call i32 %18(i32 noundef 0, ptr noundef nonnull %16) #21
  br label %evdns_base_set_option.exit

evdns_base_set_option.exit:                       ; preds = %14, %17
  ret i32 %15
}